; Function Attrs: mustprogress nounwind uwtable
define internal fastcc noundef zeroext i1 @_ZN5clang19RecursiveASTVisitorIZNK12_GLOBAL__N_114PaddingChecker12checkASTDeclEPKNS_19TranslationUnitDeclERNS_4ento15AnalysisManagerERNS6_11BugReporterEE12LocalVisitorE34TraverseAMDGPUMaxNumWorkGroupsAttrEPNS_26AMDGPUMaxNumWorkGroupsAttrE(ptr noundef nonnull align 1 dereferenceable(1) %0, ptr nocapture noundef readonly %1) unnamed_addr #0 align 2 {
  %3 = getelementptr inbounds nuw i8, ptr %1, i64 40
  %4 = load ptr, ptr %3, align 8
  %5 = tail call fastcc noundef zeroext i1 @_ZN5clang19RecursiveASTVisitorIZNK12_GLOBAL__N_114PaddingChecker12checkASTDeclEPKNS_19TranslationUnitDeclERNS_4ento15AnalysisManagerERNS6_11BugReporterEE12LocalVisitorE12TraverseStmtEPNS_4StmtEPN4llvm15SmallVectorImplINSF_14PointerIntPairISE_Lj1EbNSF_21PointerLikeTypeTraitsISE_EENSF_18PointerIntPairInfoISE_Lj1ESJ_EEEEEE(ptr noundef nonnull align 1 dereferenceable(1) %0, ptr noundef %4, ptr noundef null)
  br i1 %5, label %6, label %14

6:                                                ; preds = %2
  %7 = getelementptr inbounds nuw i8, ptr %1, i64 48
  %8 = load ptr, ptr %7, align 8
  %9 = tail call fastcc noundef zeroext i1 @_ZN5clang19RecursiveASTVisitorIZNK12_GLOBAL__N_114PaddingChecker12checkASTDeclEPKNS_19TranslationUnitDeclERNS_4ento15AnalysisManagerERNS6_11BugReporterEE12LocalVisitorE12TraverseStmtEPNS_4StmtEPN4llvm15SmallVectorImplINSF_14PointerIntPairISE_Lj1EbNSF_21PointerLikeTypeTraitsISE_EENSF_18PointerIntPairInfoISE_Lj1ESJ_EEEEEE(ptr noundef nonnull align 1 dereferenceable(1) %0, ptr noundef %8, ptr noundef null)
  br i1 %9, label %10, label %14

10:                                               ; preds = %6
  %11 = getelementptr inbounds nuw i8, ptr %1, i64 56
  %12 = load ptr, ptr %11, align 8
  %13 = tail call fastcc noundef zeroext i1 @_ZN5clang19RecursiveASTVisitorIZNK12_GLOBAL__N_114PaddingChecker12checkASTDeclEPKNS_19TranslationUnitDeclERNS_4ento15AnalysisManagerERNS6_11BugReporterEE12LocalVisitorE12TraverseStmtEPNS_4StmtEPN4llvm15SmallVectorImplINSF_14PointerIntPairISE_Lj1EbNSF_21PointerLikeTypeTraitsISE_EENSF_18PointerIntPairInfoISE_Lj1ESJ_EEEEEE(ptr noundef nonnull align 1 dereferenceable(1) %0, ptr noundef %12, ptr noundef null)
  br label %14

14:                                               ; preds = %10, %6, %2
  %.0 = phi i1 [ false, %2 ], [ false, %6 ], [ %13, %10 ]
  ret i1 %.0
}